; Function Attrs: nounwind uwtable
define internal void @h264_close(ptr noundef readonly captures(none) %0) #1 {
  %2 = load ptr, ptr %0, align 8, !tbaa !4
  tail call void @av_freep(ptr noundef %2) #10
  %3 = getelementptr inbounds nuw i8, ptr %2, i64 2696
  tail call void @ff_h264_sei_uninit(ptr noundef nonnull %3) #10
  %4 = getelementptr inbounds nuw i8, ptr %2, i64 48
  tail call void @ff_h264_ps_uninit(ptr noundef nonnull %4) #10
  ret void
}